target datalayout = "e-m:e-p270:32:32-p271:32:32-p272:64:64-i64:64-i128:128-f80:128-n8:16:32:64-S128"
target triple = "x86_64-unknown-linux-gnu"

%"class.llvh::StringRef" = type { ptr, i64 }
%"class.hermes::Value" = type { i8, %"class.hermes::Type", %"class.llvh::SmallVector" }
%"class.hermes::Type" = type { i16, i16 }
%"class.llvh::SmallVector" = type { %"class.llvh::SmallVectorImpl", %"struct.llvh::SmallVectorStorage" }
%"class.llvh::SmallVectorImpl" = type { %"class.llvh::SmallVectorTemplateBase" }
%"class.llvh::SmallVectorTemplateBase" = type { %"class.llvh::SmallVectorTemplateCommon" }
%"class.llvh::SmallVectorTemplateCommon" = type { %"class.llvh::SmallVectorBase" }
%"class.llvh::SmallVectorBase" = type { ptr, i32, i32 }
%"struct.llvh::SmallVectorStorage" = type { [2 x %"struct.llvh::AlignedCharArrayUnion"] }
%"struct.llvh::AlignedCharArrayUnion" = type { %"struct.llvh::AlignedCharArray" }
%"struct.llvh::AlignedCharArray" = type { [8 x i8] }
%"class.hermes::LiteralNumber" = type { %"class.hermes::Literal", %"class.llvh::FoldingSetBase::Node", double }
%"class.hermes::Literal" = type { %"class.hermes::Value" }
%"class.llvh::FoldingSetBase::Node" = type { ptr }
%"class.hermes::Identifier" = type { ptr }
%"class.hermes::LiteralBool" = type <{ %"class.hermes::Literal", i8, [7 x i8] }>
%"class.hermes::LiteralString" = type { %"class.hermes::Literal", %"class.llvh::FoldingSetBase::Node", %"class.hermes::Identifier" }
%"class.hermes::UniqueString" = type { %"class.llvh::StringRef" }

; Function Attrs: mustprogress nounwind uwtable
define linkonce_odr hidden noundef nonnull align 8 dereferenceable(16) ptr @_ZNK6hermes12UniqueString3strEv(ptr noundef nonnull align 8 dereferenceable(16) %this) #0 comdat align 2 {
entry:
  %this.addr = alloca ptr, align 8
  store ptr %this, ptr %this.addr, align 8
  %this1 = load ptr, ptr %this.addr, align 8
  %str_ = getelementptr inbounds %"class.hermes::UniqueString", ptr %this1, i32 0, i32 0
  ret ptr %str_
}

; Function Attrs: mustprogress nounwind uwtable
define linkonce_odr hidden noundef ptr @_ZN4llvh16cast_convert_valIN6hermes13LiteralStringEPNS1_7LiteralES4_E4doitERKS4_(ptr noundef nonnull align 8 dereferenceable(8) %Val) #0 comdat align 2 {
entry:
  %Val.addr = alloca ptr, align 8
  %Res2 = alloca ptr, align 8
  store ptr %Val, ptr %Val.addr, align 8
  %0 = load ptr, ptr %Val.addr, align 8
  %1 = load ptr, ptr %0, align 8
  store ptr %1, ptr %Res2, align 8
  %2 = load ptr, ptr %Res2, align 8
  ret ptr %2
}

; Function Attrs: mustprogress nounwind uwtable
define linkonce_odr hidden noundef ptr @_ZN4llvh16cast_convert_valIN6hermes13LiteralNumberEPNS1_7LiteralES4_E4doitERKS4_(ptr noundef nonnull align 8 dereferenceable(8) %Val) #0 comdat align 2 {
entry:
  %Val.addr = alloca ptr, align 8
  %Res2 = alloca ptr, align 8
  store ptr %Val, ptr %Val.addr, align 8
  %0 = load ptr, ptr %Val.addr, align 8
  %1 = load ptr, ptr %0, align 8
  store ptr %1, ptr %Res2, align 8
  %2 = load ptr, ptr %Res2, align 8
  ret ptr %2
}

; Function Attrs: mustprogress nounwind uwtable
define linkonce_odr hidden noundef ptr @_ZN4llvh16cast_convert_valIN6hermes11LiteralBoolEPNS1_7LiteralES4_E4doitERKS4_(ptr noundef nonnull align 8 dereferenceable(8) %Val) #0 comdat align 2 {
entry:
  %Val.addr = alloca ptr, align 8
  %Res2 = alloca ptr, align 8
  store ptr %Val, ptr %Val.addr, align 8
  %0 = load ptr, ptr %Val.addr, align 8
  %1 = load ptr, ptr %0, align 8
  store ptr %1, ptr %Res2, align 8
  %2 = load ptr, ptr %Res2, align 8
  ret ptr %2
}

; Function Attrs: mustprogress nounwind uwtable
define linkonce_odr hidden noundef nonnull align 8 dereferenceable(16) ptr @_ZNK6hermes10Identifier3strEv(ptr noundef nonnull align 8 dereferenceable(8) %this) #0 comdat align 2 {
entry:
  %this.addr = alloca ptr, align 8
  store ptr %this, ptr %this.addr, align 8
  %this1 = load ptr, ptr %this.addr, align 8
  %ptr_ = getelementptr inbounds %"class.hermes::Identifier", ptr %this1, i32 0, i32 0
  %0 = load ptr, ptr %ptr_, align 8
  %call = call noundef nonnull align 8 dereferenceable(16) ptr @_ZNK6hermes12UniqueString3strEv(ptr noundef nonnull align 8 dereferenceable(16) %0)
  ret ptr %call
}

; Function Attrs: mustprogress nounwind uwtable
define linkonce_odr hidden ptr @_ZNK6hermes13LiteralString8getValueEv(ptr noundef nonnull align 8 dereferenceable(56) %this) #0 comdat align 2 {
entry:
  %retval = alloca %"class.hermes::Identifier", align 8
  %this.addr = alloca ptr, align 8
  store ptr %this, ptr %this.addr, align 8
  %this1 = load ptr, ptr %this.addr, align 8
  %value = getelementptr inbounds %"class.hermes::LiteralString", ptr %this1, i32 0, i32 2
  call void @llvm.memcpy.p0.p0.i64(ptr align 8 %retval, ptr align 8 %value, i64 8, i1 false)
  %coerce.dive = getelementptr inbounds %"class.hermes::Identifier", ptr %retval, i32 0, i32 0
  %0 = load ptr, ptr %coerce.dive, align 8
  ret ptr %0
}

; Function Attrs: mustprogress nounwind uwtable
define linkonce_odr hidden noundef ptr @_ZN4llvh4castIN6hermes13LiteralStringENS1_7LiteralEEENS_10cast_rettyIT_PT0_E8ret_typeES7_(ptr noundef %Val) #0 comdat {
entry:
  %Val.addr = alloca ptr, align 8
  store ptr %Val, ptr %Val.addr, align 8
  %call = call noundef ptr @_ZN4llvh16cast_convert_valIN6hermes13LiteralStringEPNS1_7LiteralES4_E4doitERKS4_(ptr noundef nonnull align 8 dereferenceable(8) %Val.addr)
  ret ptr %call
}

; Function Attrs: mustprogress nounwind uwtable
define linkonce_odr noundef zeroext i1 @_ZSt5isnand(double noundef %__x) #0 comdat {
entry:
  %__x.addr = alloca double, align 8
  store double %__x, ptr %__x.addr, align 8
  %0 = load double, ptr %__x.addr, align 8
  %1 = call i1 @llvm.is.fpclass.f64(double %0, i32 3)
  ret i1 %1
}

; Function Attrs: mustprogress nounwind uwtable
define linkonce_odr hidden noundef double @_ZNK6hermes13LiteralNumber8getValueEv(ptr noundef nonnull align 8 dereferenceable(56) %this) #0 comdat align 2 {
entry:
  %this.addr = alloca ptr, align 8
  store ptr %this, ptr %this.addr, align 8
  %this1 = load ptr, ptr %this.addr, align 8
  %value = getelementptr inbounds %"class.hermes::LiteralNumber", ptr %this1, i32 0, i32 2
  %0 = load double, ptr %value, align 8
  ret double %0
}

; Function Attrs: mustprogress nounwind uwtable
define linkonce_odr hidden noundef ptr @_ZN4llvh4castIN6hermes13LiteralNumberENS1_7LiteralEEENS_10cast_rettyIT_PT0_E8ret_typeES7_(ptr noundef %Val) #0 comdat {
entry:
  %Val.addr = alloca ptr, align 8
  store ptr %Val, ptr %Val.addr, align 8
  %call = call noundef ptr @_ZN4llvh16cast_convert_valIN6hermes13LiteralNumberEPNS1_7LiteralES4_E4doitERKS4_(ptr noundef nonnull align 8 dereferenceable(8) %Val.addr)
  ret ptr %call
}

; Function Attrs: mustprogress nounwind uwtable
define linkonce_odr hidden noundef zeroext i1 @_ZNK6hermes11LiteralBool8getValueEv(ptr noundef nonnull align 8 dereferenceable(41) %this) #0 comdat align 2 {
entry:
  %this.addr = alloca ptr, align 8
  store ptr %this, ptr %this.addr, align 8
  %this1 = load ptr, ptr %this.addr, align 8
  %value = getelementptr inbounds %"class.hermes::LiteralBool", ptr %this1, i32 0, i32 1
  %0 = load i8, ptr %value, align 8
  %tobool = trunc i8 %0 to i1
  ret i1 %tobool
}

; Function Attrs: mustprogress nounwind uwtable
define linkonce_odr hidden noundef ptr @_ZN4llvh4castIN6hermes11LiteralBoolENS1_7LiteralEEENS_10cast_rettyIT_PT0_E8ret_typeES7_(ptr noundef %Val) #0 comdat {
entry:
  %Val.addr = alloca ptr, align 8
  store ptr %Val, ptr %Val.addr, align 8
  %call = call noundef ptr @_ZN4llvh16cast_convert_valIN6hermes11LiteralBoolEPNS1_7LiteralES4_E4doitERKS4_(ptr noundef nonnull align 8 dereferenceable(8) %Val.addr)
  ret ptr %call
}

; Function Attrs: mustprogress nounwind uwtable
define linkonce_odr hidden noundef zeroext i8 @_ZNK6hermes5Value7getKindEv(ptr noundef nonnull align 8 dereferenceable(40) %this) #0 comdat align 2 {
entry:
  %this.addr = alloca ptr, align 8
  store ptr %this, ptr %this.addr, align 8
  %this1 = load ptr, ptr %this.addr, align 8
  %Kind = getelementptr inbounds %"class.hermes::Value", ptr %this1, i32 0, i32 0
  %0 = load i8, ptr %Kind, align 8
  ret i8 %0
}

; Function Attrs: mustprogress nounwind uwtable
define hidden noundef ptr @_ZN6hermes13evalToBooleanERNS_9IRBuilderEPNS_7LiteralE(ptr noundef nonnull align 8 dereferenceable(40) %builder, ptr noundef %operand) #0 {
entry:
  %this.addr.i = alloca ptr, align 8
  %retval = alloca ptr, align 8
  %builder.addr = alloca ptr, align 8
  %operand.addr = alloca ptr, align 8
  %value = alloca i8, align 1
  %n = alloca double, align 8
  %ref.tmp = alloca %"class.hermes::Identifier", align 8
  store ptr %builder, ptr %builder.addr, align 8
  store ptr %operand, ptr %operand.addr, align 8
  %0 = load ptr, ptr %operand.addr, align 8
  %call = call noundef zeroext i8 @_ZNK6hermes5Value7getKindEv(ptr noundef nonnull align 8 dereferenceable(40) %0)
  switch i8 %call, label %sw.default [
    i8 113, label %sw.bb
    i8 112, label %sw.bb
    i8 117, label %sw.bb1
    i8 114, label %sw.bb4
    i8 116, label %sw.bb9
  ]

sw.bb:                                            ; preds = %entry, %entry
  store i8 0, ptr %value, align 1
  br label %sw.epilog

sw.bb1:                                           ; preds = %entry
  %1 = load ptr, ptr %operand.addr, align 8
  %call2 = call noundef ptr @_ZN4llvh4castIN6hermes11LiteralBoolENS1_7LiteralEEENS_10cast_rettyIT_PT0_E8ret_typeES7_(ptr noundef %1)
  %call3 = call noundef zeroext i1 @_ZNK6hermes11LiteralBool8getValueEv(ptr noundef nonnull align 8 dereferenceable(41) %call2)
  %frombool = zext i1 %call3 to i8
  store i8 %frombool, ptr %value, align 1
  br label %sw.epilog

sw.bb4:                                           ; preds = %entry
  %2 = load ptr, ptr %operand.addr, align 8
  %call5 = call noundef ptr @_ZN4llvh4castIN6hermes13LiteralNumberENS1_7LiteralEEENS_10cast_rettyIT_PT0_E8ret_typeES7_(ptr noundef %2)
  %call6 = call noundef double @_ZNK6hermes13LiteralNumber8getValueEv(ptr noundef nonnull align 8 dereferenceable(56) %call5)
  store double %call6, ptr %n, align 8
  %3 = load double, ptr %n, align 8
  %call7 = call noundef zeroext i1 @_ZSt5isnand(double noundef %3)
  br i1 %call7, label %land.end, label %land.rhs

land.rhs:                                         ; preds = %sw.bb4
  %4 = load double, ptr %n, align 8
  %cmp = fcmp une double %4, 0.000000e+00
  br label %land.end

land.end:                                         ; preds = %land.rhs, %sw.bb4
  %5 = phi i1 [ false, %sw.bb4 ], [ %cmp, %land.rhs ]
  %frombool8 = zext i1 %5 to i8
  store i8 %frombool8, ptr %value, align 1
  br label %sw.epilog

sw.bb9:                                           ; preds = %entry
  %6 = load ptr, ptr %operand.addr, align 8
  %call10 = call noundef ptr @_ZN4llvh4castIN6hermes13LiteralStringENS1_7LiteralEEENS_10cast_rettyIT_PT0_E8ret_typeES7_(ptr noundef %6)
  %call11 = call ptr @_ZNK6hermes13LiteralString8getValueEv(ptr noundef nonnull align 8 dereferenceable(56) %call10)
  %coerce.dive = getelementptr inbounds %"class.hermes::Identifier", ptr %ref.tmp, i32 0, i32 0
  store ptr %call11, ptr %coerce.dive, align 8
  %call12 = call noundef nonnull align 8 dereferenceable(16) ptr @_ZNK6hermes10Identifier3strEv(ptr noundef nonnull align 8 dereferenceable(8) %ref.tmp)
  store ptr %call12, ptr %this.addr.i, align 8
  %this1.i = load ptr, ptr %this.addr.i, align 8
  %Length.i = getelementptr inbounds %"class.llvh::StringRef", ptr %this1.i, i32 0, i32 1
  %7 = load i64, ptr %Length.i, align 8
  %cmp.i = icmp eq i64 %7, 0
  %lnot = xor i1 %cmp.i, true
  %frombool14 = zext i1 %lnot to i8
  store i8 %frombool14, ptr %value, align 1
  br label %sw.epilog

sw.default:                                       ; preds = %entry
  store ptr null, ptr %retval, align 8
  br label %return

sw.epilog:                                        ; preds = %sw.bb9, %land.end, %sw.bb1, %sw.bb
  %8 = load ptr, ptr %builder.addr, align 8
  %9 = load i8, ptr %value, align 1
  %tobool = trunc i8 %9 to i1
  %call15 = call noundef ptr @_ZN6hermes9IRBuilder14getLiteralBoolEb(ptr noundef nonnull align 8 dereferenceable(40) %8, i1 noundef zeroext %tobool)
  store ptr %call15, ptr %retval, align 8
  br label %return

return:                                           ; preds = %sw.epilog, %sw.default
  %10 = load ptr, ptr %retval, align 8
  ret ptr %10
}