; Function Attrs: mustprogress nounwind uwtable
define hidden noundef ptr @_ZN6hermes13evalToBooleanERNS_9IRBuilderEPNS_7LiteralE(ptr noundef nonnull align 8 dereferenceable(40) %builder, ptr noundef readonly captures(none) %operand) local_unnamed_addr #0 {
entry:
  %0 = load i8, ptr %operand, align 8
  switch i8 %0, label %return [
    i8 113, label %sw.epilog
    i8 112, label %sw.epilog
    i8 117, label %sw.bb1
    i8 114, label %sw.bb4
    i8 116, label %sw.bb9
  ]

sw.bb1:                                           ; preds = %entry
  %value.i = getelementptr inbounds nuw i8, ptr %operand, i64 40
  %1 = load i8, ptr %value.i, align 8
  %tobool.i = trunc i8 %1 to i1
  br label %sw.epilog

sw.bb4:                                           ; preds = %entry
  %value.i5 = getelementptr inbounds nuw i8, ptr %operand, i64 48
  %2 = load double, ptr %value.i5, align 8
  %3 = fcmp one double %2, 0.000000e+00
  br label %sw.epilog

sw.bb9:                                           ; preds = %entry
  %value.i6 = getelementptr inbounds nuw i8, ptr %operand, i64 48
  %retval.sroa.0.0.copyload.i = load ptr, ptr %value.i6, align 8
  %Length.i = getelementptr inbounds nuw i8, ptr %retval.sroa.0.0.copyload.i, i64 8
  %4 = load i64, ptr %Length.i, align 8
  %cmp.i = icmp ne i64 %4, 0
  br label %sw.epilog

sw.epilog:                                        ; preds = %entry, %entry, %sw.bb9, %sw.bb4, %sw.bb1
  %value.0.shrunk = phi i1 [ %cmp.i, %sw.bb9 ], [ %3, %sw.bb4 ], [ %tobool.i, %sw.bb1 ], [ false, %entry ], [ false, %entry ]
  %call15 = tail call noundef ptr @_ZN6hermes9IRBuilder14getLiteralBoolEb(ptr noundef nonnull align 8 dereferenceable(40) %builder, i1 noundef zeroext %value.0.shrunk) #6
  br label %return

return:                                           ; preds = %entry, %sw.epilog
  %retval.0 = phi ptr [ %call15, %sw.epilog ], [ null, %entry ]
  ret ptr %retval.0
}